
./test/progAll/main.elf:     file format elf32-littleriscv
./test/progAll/main.elf
architecture: riscv:rv32, flags 0x00000112:
EXEC_P, HAS_SYMS, D_PAGED
start address 0x00000000

Program Header:
0x70000003 off    0x00002144 vaddr 0x00000000 paddr 0x00000000 align 2**0
         filesz 0x0000001a memsz 0x00000000 flags r--
    LOAD off    0x00001000 vaddr 0x00000000 paddr 0x00000000 align 2**12
         filesz 0x00000e54 memsz 0x00000e54 flags r-x
    LOAD off    0x00002000 vaddr 0x00008000 paddr 0x00008000 align 2**12
         filesz 0x00000144 memsz 0x00000144 flags rw-

Sections:
Idx Name          Size      VMA       LMA       File off  Algn
  0 .text         00000e54  00000000  00000000  00001000  2**2
                  CONTENTS, ALLOC, LOAD, READONLY, CODE
  1 .data         00000144  00008000  00008000  00002000  2**0
                  CONTENTS, ALLOC, LOAD, DATA
  2 .riscv.attributes 0000001a  00000000  00000000  00002144  2**0
                  CONTENTS, READONLY
SYMBOL TABLE:
00000000 l    d  .text	00000000 .text
00008000 l    d  .data	00000000 .data
00000000 l    d  .riscv.attributes	00000000 .riscv.attributes
00000000 l    df *ABS*	00000000 setup.o
00000000 l       .text	00000000 _start
00000000 l       .text	00000000 init_stack
00000008 l       .text	00000000 SystemInit
0000000c l       .text	00000000 SystemExit
0000001c l       .text	00000000 dead_loop
00000000 l    df *ABS*	00000000 main.o
00008000 l       .data	00000000 lw_data
00008004 l       .data	00000000 test1
00008084 l       .data	00000000 test2
000080c0 l       .data	00000000 test3
0000812c l       .data	00000000 TEST1_SIZE
00008130 l       .data	00000000 TEST2_SIZE
00008134 l       .data	00000000 TEST3_SIZE
00008138 l       .data	00000000 test4
0000813c l       .data	00000000 test5
00008140 l       .data	00000000 test6
00000034 l       .text	00000000 add
00000070 l       .text	00000000 sub
000000ac l       .text	00000000 sll
000000e8 l       .text	00000000 slt
00000124 l       .text	00000000 sltu
00000164 l       .text	00000000 xor
000001a8 l       .text	00000000 srl
000001ec l       .text	00000000 sra
00000230 l       .text	00000000 or
00000278 l       .text	00000000 and
000002bc l       .text	00000000 load
00000360 l       .text	00000000 addi
000003ac l       .text	00000000 slti
000003f8 l       .text	00000000 sltiu
00000448 l       .text	00000000 xori
00000494 l       .text	00000000 ori
000004e0 l       .text	00000000 andi
00000534 l       .text	00000000 slli
00000584 l       .text	00000000 srli
000005d8 l       .text	00000000 srai
0000062c l       .text	00000000 jalr
000006b0 l       .text	00000000 store
00000718 l       .text	00000000 beq
00000778 l       .text	00000000 bne
000007d8 l       .text	00000000 blt
00000860 l       .text	00000000 bge
000008dc l       .text	00000000 bltu
00000958 l       .text	00000000 bgeu
000009d4 l       .text	00000000 auipc
000009f0 l       .text	00000000 lui
00000a0c l       .text	00000000 jal
00000c24 l       .text	00000000 mergesort
00000a7c l       .text	00000000 write_anwser1
00000a98 l       .text	00000000 end_anwser1
00000adc l       .text	00000000 write_anwser2
00000afc l       .text	00000000 end_anwser2
00000b4c l       .text	00000000 write_anwser3
00000b6c l       .text	00000000 end_anwser3
00000e14 l       .text	00000000 fib
00000c18 l       .text	00000000 main_exit
00000e10 l       .text	00000000 end_mergesort
00000cb0 l       .text	00000000 merge
00000d38 l       .text	00000000 endforloop
00000d14 l       .text	00000000 forloop
00000d38 l       .text	00000000 while1loop
00000db4 l       .text	00000000 while3loop
00000d8c l       .text	00000000 while2loop
00000d74 l       .text	00000000 while1loop_else
00000d5c l       .text	00000000 while1loop_if
00000ddc l       .text	00000000 endwhile
00000e50 l       .text	00000000 L1
0000fffc g       .data	00000000 _sim_end
00000024 g       .text	00000000 main
00009000 g       .data	00000000 _answer
0000fff0 g       .data	00000000 _stack


Contents of section .text:
 0000 17010100 130101ff ef00c001 97020100  ................
 0010 938202ff 1303f0ff 23a06200 6f000000  ........#.b.o...
 0020 9300f0ff 1301c1ff 23208100 17940000  ........# ......
 0030 130444fd 9302f0ff 1303f0ff b3826200  ..D...........b.
 0040 b3826200 b3826200 b3826200 b3826200  ..b...b...b...b.
 0050 1303e0ff b3025300 b3025300 b3025300  ......S...S...S.
 0060 b3025300 b3025300 23205400 13044400  ..S...S.# T...D.
 0070 93020000 1303f0ff b3826240 b3826240  ..........b@..b@
 0080 b3826240 b3826240 b3826240 1303d0ff  ..b@..b@..b@....
 0090 b3025340 b3025340 b3025340 b3025340  ..S@..S@..S@..S@
 00a0 b3025340 23205400 13044400 93021000  ..S@# T...D.....
 00b0 13031000 b3926200 b3926200 b3926200  ......b...b...b.
 00c0 b3926200 b3926200 13032000 b3125300  ..b...b... ...S.
 00d0 b3125300 b3125300 b3125300 b3125300  ..S...S...S...S.
 00e0 23205400 13044400 9302f0ff 13031000  # T...D.........
 00f0 b3a26200 b3a26200 b3a26200 b3a26200  ..b...b...b...b.
 0100 b3a26200 1303f0ff b3225300 b3225300  ..b......"S.."S.
 0110 b3225300 b3225300 b3225300 23205400  ."S.."S.."S.# T.
 0120 13044400 9302f0ff 13031000 b3b26200  ..D...........b.
 0130 b3b26200 b3b26200 b3b26200 b3b26200  ..b...b...b...b.
 0140 b3b26200 13030000 b3325300 b3325300  ..b......2S..2S.
 0150 b3325300 b3325300 b3325300 23205400  .2S..2S..2S.# T.
 0160 13044400 9302f0ff 37f3f0f0 1303030f  ..D.....7.......
 0170 b3c26200 b3c26200 b3c26200 b3c26200  ..b...b...b...b.
 0180 b3c26200 37737777 13037377 b3425300  ..b.7sww..sw.BS.
 0190 b3425300 b3425300 b3425300 b3425300  .BS..BS..BS..BS.
 01a0 23205400 13044400 9302f0ff 37b3ec75  # T...D.....7..u
 01b0 13034386 b3d26200 b3d26200 b3d26200  ..C...b...b...b.
 01c0 b3d26200 b3d26200 37533412 13038367  ..b...b.7S4....g
 01d0 b3525300 b3525300 b3525300 b3525300  .RS..RS..RS..RS.
 01e0 b3525300 23205400 13044400 b7426587  .RS.# T...D..Be.
 01f0 93821232 13034000 b3d26240 b3d26240  ...2..@...b@..b@
 0200 b3d26240 b3d26240 b3d26240 37737777  ..b@..b@..b@7sww
 0210 13037377 b3525340 b3525340 b3525340  ..sw.RS@.RS@.RS@
 0220 b3525340 b3525340 23205400 13044400  .RS@.RS@# T...D.
 0230 b7523412 93828267 37c3dcfe 130383a9  .R4....g7.......
 0240 b3e26200 b3e26200 b3e26200 b3e26200  ..b...b...b...b.
 0250 b3e26200 37034062 13035328 b3625300  ..b.7.@b..S(.bS.
 0260 b3625300 b3625300 b3625300 b3625300  .bS..bS..bS..bS.
 0270 23205400 13044400 b7523412 93828267  # T...D..R4....g
 0280 1303f0ff b3f26200 b3f26200 b3f26200  ......b...b...b.
 0290 b3f26200 b3f26200 37f3f0f0 1303030f  ..b...b.7.......
 02a0 b3725300 b3725300 b3725300 b3725300  .rS..rS..rS..rS.
 02b0 b3725300 23205400 13044400 17830000  .rS.# T...D.....
 02c0 130343d4 83220300 1301c1fe 23205100  ..C.."......# Q.
 02d0 93020100 23225100 93024100 23245100  ....#"Q...A.#$Q.
 02e0 93028100 23265100 9302c100 23285100  ....#&Q.....#(Q.
 02f0 93020101 83a20200 83a20200 83a20200  ................
 0300 83a20200 83a20200 13014101 0323c1ff  ..........A..#..
 0310 832381ff 032e41ff 832e01ff 032fc1fe  .#....A....../..
 0320 3303d301 b383c301 33037340 3303e301  3.......3.s@3...
 0330 b3826200 13040401 232854fe 030304ff  ..b.....#(T.....
 0340 831304ff 034e04ff 835e04ff 232a64fe  .....N...^..#*d.
 0350 232c74fe 232ec4ff 2320d401 13044400  #,t.#...# ....D.
 0360 9302f0ff 9382f2ff 93825276 93828288  ..........Rv....
 0370 93822243 9382c2ab 13031052 930323ce  .."C.......R..#.
 0380 130eb313 930e9349 130f1380 930f83a6  .......I........
 0390 b383c301 b38eee01 b382f201 b383d301  ................
 03a0 b3827200 23205400 13044400 9302f0ff  ..r.# T...D.....
 03b0 93a2f2ff 93a2823e 93a20283 93a21200  .......>........
 03c0 93a27245 130360c6 932343c9 132eb322  ..rE..`..#C...."
 03d0 932e4383 132f0300 932f63c6 b383c301  ..C../.../c.....
 03e0 b38eee01 b382f201 b383d301 b3827200  ..............r.
 03f0 23205400 13044400 9302e0ff 93b2f2ff  # T...D.........
 0400 93b2823e 93b20283 93b212f0 93b21200  ...>............
 0410 37c3aaaa 1303b3bb 933343c9 133eb322  7........3C..>."
 0420 933e4383 133f0300 933f63c6 b383c301  .>C..?...?c.....
 0430 b38eee01 b382f201 b383d301 b3827200  ..............r.
 0440 23205400 13044400 9302f0ff 93c2b207  # T...D.........
 0450 93c25297 93c212cc 93c2127f 93c2324a  ..R...........2J
 0460 13037038 934333ee 134e430a 934e636e  ..p8.C3..NC..Ncn
 0470 134f9389 934f934b b383c301 b38eee01  .O...O.K........
 0480 b382f201 b383d301 b3827200 23205400  ..........r.# T.
 0490 13044400 93021000 93e2c21b 93e2526e  ..D...........Rn
 04a0 93e2d2ed 93e2c209 93e22250 13033078  .........."P..0x
 04b0 9363d311 136ec3f5 936ea391 136f7376  .c...n...n...osv
 04c0 936f73b4 b383c301 b38eee01 b382f201  .os.............
 04d0 b383d301 b3827200 23205400 13044400  ......r.# T...D.
 04e0 b7f2cdab 938282f9 93f232eb 93f242f4  ..........2...B.
 04f0 93f29220 93f272e8 93f25235 37533412  ... ..r...R57S4.
 0500 13038367 9373137f 137ea30d 937e43ec  ...g.s...~...~C.
 0510 137ff34a 937f93cf b383c301 b38eee01  ...J............
 0520 b382f201 b383d301 b3827200 23205400  ..........r.# T.
 0530 13044400 9302a000 93922200 93925200  ..D......."...R.
 0540 93927200 9392a200 93926200 3743b21a  ..r.......b.7C..
 0550 130343cd 9313f300 131e6300 931ec301  ..C.......c.....
 0560 131f1301 931f7300 b383c301 b38eee01  ......s.........
 0570 b382f201 b383d301 b3827200 23205400  ..........r.# T.
 0580 13044400 b7c2b2a1 9382423d 93d23200  ..D.......B=..2.
 0590 93d24200 93d26200 93d2b200 93d27200  ..B...b.......r.
 05a0 3783bfaa 1303c390 93539301 135e0301  7........S...^..
 05b0 935e2301 135fb301 935f1301 b383c301  .^#.._..._......
 05c0 b38eee01 b382f201 b383d301 b3827200  ..............r.
 05d0 23205400 13044400 b7c2b2a1 9382423d  # T...D.......B=
 05e0 93d25240 93d22240 93d28240 93d29240  ..R@.."@...@...@
 05f0 93d24240 3783bfaa 1303c390 9353d340  ..B@7........S.@
 0600 135e8340 935e9340 135fe340 935f4340  .^.@.^.@._.@._C@
 0610 b383c301 b38eee01 b382f201 b383d301  ................
 0620 b3827200 23205400 13044400 b7f2ffff  ..r.# T...D.....
 0630 17030000 13030302 67030300 93e21200  ........g.......
 0640 67034300 93e24200 67034300 93e20201  g.C...B.g.C.....
 0650 67034300 93e21200 67034300 93e28200  g.C.....g.C.....
 0660 17030000 13030303 e70303fe 93e20202  ................
 0670 670e83fe 93e20204 e70e03ff 93e20208  g...............
 0680 670f83ff 93e20210 e70f0300 93e20220  g.............. 
 0690 b383c341 b38eee41 b38f6f40 b383d301  ...A...A..o@....
 06a0 3383f301 b3926200 23205400 13044400  3.....b.# T...D.
 06b0 9302f000 1303000f b7130000 938303f0  ................
 06c0 37fe0000 b75e3412 938e8e67 13044401  7....^4....g..D.
 06d0 232e54fe 232c64fe 232a74fe 2328c4ff  #.T.#,d.#*t.#(..
 06e0 2326d4ff 13044401 032f84fd 832e04ff  #&....D../......
 06f0 232ee4ff 230ce4ff 231ae4ff a309e4ff  #...#...#.......
 0700 2317e4ff 832204ff 0323c4fe b3035300  #...."...#....S.
 0710 13044400 232e74fe b7f2ffff 37f3ffff  ..D.#.t.....7...
 0720 37130000 130303ff 638c6202 638a6202  7.......c.b.c.b.
 0730 63886202 63866202 63846202 37f3ffff  c.b.c.b.c.b.7...
 0740 37130000 1303f3ff 630c5300 630a5300  7.......c.S.c.S.
 0750 63085300 63065300 63045300 6f008000  c.S.c.S.c.S.o...
 0760 93e21200 1343f3ff 63846200 93e22200  .....C..c.b...".
 0770 23205400 13044400 b7f2ffff 37130000  # T...D.....7...
 0780 130303ff 37f3ffff 639c6202 639a6202  ....7...c.b.c.b.
 0790 63986202 63966202 63946202 37130000  c.b.c.b.c.b.7...
 07a0 1303f3ff 37f3ffff 631c5300 631a5300  ....7...c.S.c.S.
 07b0 63185300 63165300 63145300 6f008000  c.S.c.S.c.S.o...
 07c0 93e21200 1343f3ff 63946200 93e22200  .....C..c.b...".
 07d0 23205400 13044400 b7f2ffff 37130000  # T...D.....7...
 07e0 130303ff 1383c2ff 63cc6202 63ca6202  ........c.b.c.b.
 07f0 63c86202 63c66202 63c46202 37130000  c.b.c.b.c.b.7...
 0800 1303f3ff 13834200 634c5300 634a5300  ......B.cLS.cJS.
 0810 63485300 63465300 63445300 6f008000  cHS.cFS.cDS.o...
 0820 93e21200 37130000 1303f3ff 63c46200  ....7.......c.b.
 0830 93e22200 13830200 63c46200 6f008000  ..".....c.b.o...
 0840 93e24200 37f3ffff 1303e3ee 63c46200  ..B.7.......c.b.
 0850 6f008000 93e28200 23205400 13044400  o.......# T...D.
 0860 b7f2ffff 37f3ffff 13834200 63da6202  ....7.....B.c.b.
 0870 63d86202 63d66202 63d46202 63d26202  c.b.c.b.c.b.c.b.
 0880 3703ffff 1383c2ff 635c5300 635a5300  7.......c\S.cZS.
 0890 63585300 63565300 63545300 6f008000  cXS.cVS.cTS.o...
 08a0 93e21200 37130000 1303f3ff 63d46200  ....7.......c.b.
 08b0 6f008000 93e22200 13830200 63d46200  o.....".....c.b.
 08c0 93e24200 37f3ffff 1303e3ee 63d46200  ..B.7.......c.b.
 08d0 93e28200 23205400 13044400 b7f2ffff  ....# T...D.....
 08e0 130300f0 1383c2ff 63ea6202 63e86202  ........c.b.c.b.
 08f0 63e66202 63e46202 63e26202 1303f0ff  c.b.c.b.c.b.....
 0900 13834200 636c5300 636a5300 63685300  ..B.clS.cjS.chS.
 0910 63665300 63645300 6f008000 93e21200  cfS.cdS.o.......
 0920 1303f0ff 63e46200 93e22200 13830200  ....c.b...".....
 0930 63e46200 6f008000 93e24200 37130000  c.b.o.....B.7...
 0940 1303f3ff 63e46200 6f008000 93e28200  ....c.b.o.......
 0950 23205400 13044400 b7f2ffff 37f3ffff  # T...D.....7...
 0960 13834200 63fc6202 63fa6202 63f86202  ..B.c.b.c.b.c.b.
 0970 63f66202 63f46202 37130000 1303f3ff  c.b.c.b.7.......
 0980 1383c2ff 637c5300 637a5300 63785300  ....c|S.czS.cxS.
 0990 63765300 63745300 6f008000 93e21200  cvS.ctS.o.......
 09a0 1303f0ff 63f46200 6f008000 93e22200  ....c.b.o.....".
 09b0 13830200 63f46200 93e24200 37130000  ....c.b...B.7...
 09c0 1303f3ff 63f46200 93e28200 23205400  ....c.b.....# T.
 09d0 13044400 97020000 17f3ffff 97935713  ..D...........W.
 09e0 33037300 b3826200 23205400 13044400  3.s...b.# T...D.
 09f0 b7020000 37f3ffff b7935713 33037300  ....7.....W.3.s.
 0a00 b3826200 23205400 13044400 b7f2ffff  ..b.# T...D.....
 0a10 6f038000 93e21200 97030000 93830300  o...............
 0a20 33836340 b3826200 23205400 13044400  3.c@..b.# T...D.
 0a30 130141ff 23248100 23229100 23202101  ..A.#$..#"..# !.
 0a40 930d0400 13890d00 17740000 1304c45b  .........t.....[
 0a50 97740000 83a4c46d 1301c1ff 23201100  .t.....m....# ..
 0a60 13050400 93050000 1386f4ff ef00801b  ................
 0a70 83200100 13014100 13030000 93030002  . ....A.........
 0a80 83220400 23205900 13044400 13094900  ."..# Y...D...I.
 0a90 13031300 e34473fe 17740000 1304c45e  .....Ds..t.....^
 0aa0 97740000 83a40469 177f0000 032f4f68  .t.....i...../Oh
 0ab0 131f2f00 3389ed01 1301c1ff 23201100  ../.3.......# ..
 0ac0 13050400 93050000 1386f4ff ef008015  ................
 0ad0 83200100 13014100 13030000 97730000  . ....A......s..
 0ae0 83a34365 83220400 23205900 13044400  ..Ce."..# Y...D.
 0af0 13094900 13031300 e34273fe 17740000  ..I......Bs..t..
 0b00 1304445c 97740000 83a40463 977e0000  ..D\.t.....c.~..
 0b10 83ae0e62 177f0000 032fcf61 330fdf01  ...b...../.a3...
 0b20 131f2f00 3389ed01 1301c1ff 23201100  ../.3.......# ..
 0b30 13050400 93050000 1386f4ff ef00800e  ................
 0b40 83200100 13014100 13030000 97730000  . ....A......s..
 0b50 83a3835e 83220400 23205900 13044400  ...^."..# Y...D.
 0b60 13094900 13031300 e34273fe 03248100  ..I......Bs..$..
 0b70 83244100 23202101 1301c100 17750000  .$A.# !......u..
 0b80 0325c55b 13041000 1301c1ff 23201100  .%.[........# ..
 0b90 ef004028 83200100 13014100 93050500  ..@(. ....A.....
 0ba0 17750000 03258559 2320b900 13094900  .u...%.Y# ....I.
 0bb0 17750000 0325c558 13041000 1301c1ff  .u...%.X........
 0bc0 23201100 ef000025 83200100 13014100  # .....%. ....A.
 0bd0 93050500 17750000 03258556 2320b900  .....u...%.V# ..
 0be0 13094900 17750000 0325c555 13041000  ..I..u...%.U....
 0bf0 1301c1ff 23201100 ef00c021 83200100  ....# .....!. ..
 0c00 13014100 93050500 17750000 03258553  ..A......u...%.S
 0c10 2320b900 13094900 03240100 13014100  # ....I..$....A.
 0c20 67800000 93020500 13830500 93030600  g...............
 0c30 6350731e 330e7300 135e1e00 130101ff  cPs.3.s..^......
 0c40 23266100 23247100 2322c101 23201100  #&a.#$q.#"..# ..
 0c50 13850200 93050300 13060e00 eff09ffc  ................
 0c60 0323c100 83238100 032e4100 83200100  .#...#....A.. ..
 0c70 13010101 130101ff 23266100 23247100  ........#&a.#$q.
 0c80 2322c101 23201100 13850200 130e1e00  #"..# ..........
 0c90 93050e00 13860300 eff0dff8 0323c100  .............#..
 0ca0 83238100 032e4100 83200100 13010101  .#....A.. ......
 0cb0 130141fd 23248102 23229102 23202103  ..A.#$..#"..# !.
 0cc0 232e3101 232c4101 232a5101 23286101  #.1.#,A.#*Q.#(a.
 0cd0 23267101 23248101 23229101 2320a101  #&q.#$..#"..# ..
 0ce0 33846340 13041400 930e0000 93040000  3.c@............
 0cf0 33096e40 13091900 b3096e40 338a6340  3.n@......n@3.c@
 0d00 930a0300 931b2400 33017141 130b0100  ......$.3.qA....
 0d10 63d48e02 330fd301 131f2f00 338ce201  c...3...../.3...
 0d20 832c0c00 139f2e00 330ceb01 23209c01  .,......3...# ..
 0d30 938e1e00 e3c08efe 63ce9906 63482a05  ........c...cH*.
 0d40 139f2400 330ceb01 832c0c00 131f2900  ..$.3....,....).
 0d50 330ceb01 032d0c00 634e9d01 139f2a00  3....-..cN....*.
 0d60 338ce201 23209c01 938a1a00 93841400  3...# ..........
 0d70 6ff09ffc 139f2a00 338ce201 2320ac01  o.....*.3...# ..
 0d80 938a1a00 13091900 6ff01ffb 63c89904  ........o...c...
 0d90 139f2400 330ceb01 832c0c00 139f2a00  ..$.3....,....*.
 0da0 338ce201 23209c01 938a1a00 93841400  3...# ..........
 0db0 6ff0dffd 63442a03 131f2900 330ceb01  o...cD*...).3...
 0dc0 832c0c00 139f2a00 338ce201 23209c01  .,....*.3...# ..
 0dd0 938a1a00 13091900 6ff0dffd 33017101  ........o...3.q.
 0de0 03248102 83244102 03290102 8329c101  .$...$A..)...)..
 0df0 032a8101 832a4101 032b0101 832bc100  .*...*A..+...+..
 0e00 032c8100 832c4100 032d0100 1301c102  .,...,A..-......
 0e10 67800000 635ea402 130141ff 23241100  g...c^....A.#$..
 0e20 2322a100 1305f5ff eff0dffe 2320a100  #"..........# ..
 0e30 03254100 1305e5ff eff0dffd 83220100  .%A.........."..
 0e40 33055500 83208100 1301c100 67800000  3.U.. ......g...
 0e50 67800000                             g...            
Contents of section .data:
 8000 66666666 10000000 02000000 04000000  ffff............
 8010 10000000 04000000 0a000000 0c000000  ................
 8020 02000000 0e000000 08000000 04000000  ................
 8030 0e000000 06000000 04000000 02000000  ................
 8040 0a000000 0c000000 06000000 0a000000  ................
 8050 02000000 0e000000 0e000000 06000000  ................
 8060 08000000 10000000 08000000 10000000  ................
 8070 06000000 0c000000 0a000000 08000000  ................
 8080 7b000000 d6010000 95010000 e1000000  {...............
 8090 c5000000 7e000000 7a000000 38000000  ....~...z...8...
 80a0 21000000 afffffff edfeffff 85feffff  !...............
 80b0 67feffff 60feffff 10feffff 0cfeffff  g...`...........
 80c0 9c010000 26feffff bb010000 ab000000  ....&...........
 80d0 e9ffffff f7000000 dd000000 07000000  ................
 80e0 28000000 dd000000 a6ffffff 3d000000  (...........=...
 80f0 f7ffffff 31000000 b0ffffff b0ffffff  ....1...........
 8100 dd000000 85feffff 5fffffff 73feffff  ........_...s...
 8110 53ffffff 14010000 3bffffff dd000000  S.......;.......
 8120 f4ffffff 6fffffff 65000000 20000000  ....o...e... ...
 8130 0f000000 1b000000 05000000 0a000000  ................
 8140 0c000000                             ....            
Contents of section .riscv.attributes:
 0000 41190000 00726973 63760001 0f000000  A....riscv......
 0010 05727633 32693270 3000               .rv32i2p0.      

Disassembly of section .text:

00000000 <_start>:
   0:	00010117          	auipc	sp,0x10
   4:	ff010113          	addi	sp,sp,-16 # fff0 <_stack>

00000008 <SystemInit>:
   8:	01c000ef          	jal	ra,24 <main>

0000000c <SystemExit>:
   c:	00010297          	auipc	t0,0x10
  10:	ff028293          	addi	t0,t0,-16 # fffc <_sim_end>
  14:	fff00313          	li	t1,-1
  18:	0062a023          	sw	t1,0(t0)

0000001c <dead_loop>:
  1c:	0000006f          	j	1c <dead_loop>
  20:	fff00093          	li	ra,-1

00000024 <main>:
  24:	ffc10113          	addi	sp,sp,-4
  28:	00812023          	sw	s0,0(sp)
  2c:	00009417          	auipc	s0,0x9
  30:	fd440413          	addi	s0,s0,-44 # 9000 <_answer>

00000034 <add>:
  34:	fff00293          	li	t0,-1
  38:	fff00313          	li	t1,-1
  3c:	006282b3          	add	t0,t0,t1
  40:	006282b3          	add	t0,t0,t1
  44:	006282b3          	add	t0,t0,t1
  48:	006282b3          	add	t0,t0,t1
  4c:	006282b3          	add	t0,t0,t1
  50:	ffe00313          	li	t1,-2
  54:	005302b3          	add	t0,t1,t0
  58:	005302b3          	add	t0,t1,t0
  5c:	005302b3          	add	t0,t1,t0
  60:	005302b3          	add	t0,t1,t0
  64:	005302b3          	add	t0,t1,t0
  68:	00542023          	sw	t0,0(s0)
  6c:	00440413          	addi	s0,s0,4

00000070 <sub>:
  70:	00000293          	li	t0,0
  74:	fff00313          	li	t1,-1
  78:	406282b3          	sub	t0,t0,t1
  7c:	406282b3          	sub	t0,t0,t1
  80:	406282b3          	sub	t0,t0,t1
  84:	406282b3          	sub	t0,t0,t1
  88:	406282b3          	sub	t0,t0,t1
  8c:	ffd00313          	li	t1,-3
  90:	405302b3          	sub	t0,t1,t0
  94:	405302b3          	sub	t0,t1,t0
  98:	405302b3          	sub	t0,t1,t0
  9c:	405302b3          	sub	t0,t1,t0
  a0:	405302b3          	sub	t0,t1,t0
  a4:	00542023          	sw	t0,0(s0)
  a8:	00440413          	addi	s0,s0,4

000000ac <sll>:
  ac:	00100293          	li	t0,1
  b0:	00100313          	li	t1,1
  b4:	006292b3          	sll	t0,t0,t1
  b8:	006292b3          	sll	t0,t0,t1
  bc:	006292b3          	sll	t0,t0,t1
  c0:	006292b3          	sll	t0,t0,t1
  c4:	006292b3          	sll	t0,t0,t1
  c8:	00200313          	li	t1,2
  cc:	005312b3          	sll	t0,t1,t0
  d0:	005312b3          	sll	t0,t1,t0
  d4:	005312b3          	sll	t0,t1,t0
  d8:	005312b3          	sll	t0,t1,t0
  dc:	005312b3          	sll	t0,t1,t0
  e0:	00542023          	sw	t0,0(s0)
  e4:	00440413          	addi	s0,s0,4

000000e8 <slt>:
  e8:	fff00293          	li	t0,-1
  ec:	00100313          	li	t1,1
  f0:	0062a2b3          	slt	t0,t0,t1
  f4:	0062a2b3          	slt	t0,t0,t1
  f8:	0062a2b3          	slt	t0,t0,t1
  fc:	0062a2b3          	slt	t0,t0,t1
 100:	0062a2b3          	slt	t0,t0,t1
 104:	fff00313          	li	t1,-1
 108:	005322b3          	slt	t0,t1,t0
 10c:	005322b3          	slt	t0,t1,t0
 110:	005322b3          	slt	t0,t1,t0
 114:	005322b3          	slt	t0,t1,t0
 118:	005322b3          	slt	t0,t1,t0
 11c:	00542023          	sw	t0,0(s0)
 120:	00440413          	addi	s0,s0,4

00000124 <sltu>:
 124:	fff00293          	li	t0,-1
 128:	00100313          	li	t1,1
 12c:	0062b2b3          	sltu	t0,t0,t1
 130:	0062b2b3          	sltu	t0,t0,t1
 134:	0062b2b3          	sltu	t0,t0,t1
 138:	0062b2b3          	sltu	t0,t0,t1
 13c:	0062b2b3          	sltu	t0,t0,t1
 140:	0062b2b3          	sltu	t0,t0,t1
 144:	00000313          	li	t1,0
 148:	005332b3          	sltu	t0,t1,t0
 14c:	005332b3          	sltu	t0,t1,t0
 150:	005332b3          	sltu	t0,t1,t0
 154:	005332b3          	sltu	t0,t1,t0
 158:	005332b3          	sltu	t0,t1,t0
 15c:	00542023          	sw	t0,0(s0)
 160:	00440413          	addi	s0,s0,4

00000164 <xor>:
 164:	fff00293          	li	t0,-1
 168:	f0f0f337          	lui	t1,0xf0f0f
 16c:	0f030313          	addi	t1,t1,240 # f0f0f0f0 <_sim_end+0xf0eff0f4>
 170:	0062c2b3          	xor	t0,t0,t1
 174:	0062c2b3          	xor	t0,t0,t1
 178:	0062c2b3          	xor	t0,t0,t1
 17c:	0062c2b3          	xor	t0,t0,t1
 180:	0062c2b3          	xor	t0,t0,t1
 184:	77777337          	lui	t1,0x77777
 188:	77730313          	addi	t1,t1,1911 # 77777777 <_sim_end+0x7776777b>
 18c:	005342b3          	xor	t0,t1,t0
 190:	005342b3          	xor	t0,t1,t0
 194:	005342b3          	xor	t0,t1,t0
 198:	005342b3          	xor	t0,t1,t0
 19c:	005342b3          	xor	t0,t1,t0
 1a0:	00542023          	sw	t0,0(s0)
 1a4:	00440413          	addi	s0,s0,4

000001a8 <srl>:
 1a8:	fff00293          	li	t0,-1
 1ac:	75ecb337          	lui	t1,0x75ecb
 1b0:	86430313          	addi	t1,t1,-1948 # 75eca864 <_sim_end+0x75eba868>
 1b4:	0062d2b3          	srl	t0,t0,t1
 1b8:	0062d2b3          	srl	t0,t0,t1
 1bc:	0062d2b3          	srl	t0,t0,t1
 1c0:	0062d2b3          	srl	t0,t0,t1
 1c4:	0062d2b3          	srl	t0,t0,t1
 1c8:	12345337          	lui	t1,0x12345
 1cc:	67830313          	addi	t1,t1,1656 # 12345678 <_sim_end+0x1233567c>
 1d0:	005352b3          	srl	t0,t1,t0
 1d4:	005352b3          	srl	t0,t1,t0
 1d8:	005352b3          	srl	t0,t1,t0
 1dc:	005352b3          	srl	t0,t1,t0
 1e0:	005352b3          	srl	t0,t1,t0
 1e4:	00542023          	sw	t0,0(s0)
 1e8:	00440413          	addi	s0,s0,4

000001ec <sra>:
 1ec:	876542b7          	lui	t0,0x87654
 1f0:	32128293          	addi	t0,t0,801 # 87654321 <_sim_end+0x87644325>
 1f4:	00400313          	li	t1,4
 1f8:	4062d2b3          	sra	t0,t0,t1
 1fc:	4062d2b3          	sra	t0,t0,t1
 200:	4062d2b3          	sra	t0,t0,t1
 204:	4062d2b3          	sra	t0,t0,t1
 208:	4062d2b3          	sra	t0,t0,t1
 20c:	77777337          	lui	t1,0x77777
 210:	77730313          	addi	t1,t1,1911 # 77777777 <_sim_end+0x7776777b>
 214:	405352b3          	sra	t0,t1,t0
 218:	405352b3          	sra	t0,t1,t0
 21c:	405352b3          	sra	t0,t1,t0
 220:	405352b3          	sra	t0,t1,t0
 224:	405352b3          	sra	t0,t1,t0
 228:	00542023          	sw	t0,0(s0)
 22c:	00440413          	addi	s0,s0,4

00000230 <or>:
 230:	123452b7          	lui	t0,0x12345
 234:	67828293          	addi	t0,t0,1656 # 12345678 <_sim_end+0x1233567c>
 238:	fedcc337          	lui	t1,0xfedcc
 23c:	a9830313          	addi	t1,t1,-1384 # fedcba98 <_sim_end+0xfedbba9c>
 240:	0062e2b3          	or	t0,t0,t1
 244:	0062e2b3          	or	t0,t0,t1
 248:	0062e2b3          	or	t0,t0,t1
 24c:	0062e2b3          	or	t0,t0,t1
 250:	0062e2b3          	or	t0,t0,t1
 254:	62400337          	lui	t1,0x62400
 258:	28530313          	addi	t1,t1,645 # 62400285 <_sim_end+0x623f0289>
 25c:	005362b3          	or	t0,t1,t0
 260:	005362b3          	or	t0,t1,t0
 264:	005362b3          	or	t0,t1,t0
 268:	005362b3          	or	t0,t1,t0
 26c:	005362b3          	or	t0,t1,t0
 270:	00542023          	sw	t0,0(s0)
 274:	00440413          	addi	s0,s0,4

00000278 <and>:
 278:	123452b7          	lui	t0,0x12345
 27c:	67828293          	addi	t0,t0,1656 # 12345678 <_sim_end+0x1233567c>
 280:	fff00313          	li	t1,-1
 284:	0062f2b3          	and	t0,t0,t1
 288:	0062f2b3          	and	t0,t0,t1
 28c:	0062f2b3          	and	t0,t0,t1
 290:	0062f2b3          	and	t0,t0,t1
 294:	0062f2b3          	and	t0,t0,t1
 298:	f0f0f337          	lui	t1,0xf0f0f
 29c:	0f030313          	addi	t1,t1,240 # f0f0f0f0 <_sim_end+0xf0eff0f4>
 2a0:	005372b3          	and	t0,t1,t0
 2a4:	005372b3          	and	t0,t1,t0
 2a8:	005372b3          	and	t0,t1,t0
 2ac:	005372b3          	and	t0,t1,t0
 2b0:	005372b3          	and	t0,t1,t0
 2b4:	00542023          	sw	t0,0(s0)
 2b8:	00440413          	addi	s0,s0,4

000002bc <load>:
 2bc:	00008317          	auipc	t1,0x8
 2c0:	d4430313          	addi	t1,t1,-700 # 8000 <lw_data>
 2c4:	00032283          	lw	t0,0(t1)
 2c8:	fec10113          	addi	sp,sp,-20
 2cc:	00512023          	sw	t0,0(sp)
 2d0:	00010293          	mv	t0,sp
 2d4:	00512223          	sw	t0,4(sp)
 2d8:	00410293          	addi	t0,sp,4
 2dc:	00512423          	sw	t0,8(sp)
 2e0:	00810293          	addi	t0,sp,8
 2e4:	00512623          	sw	t0,12(sp)
 2e8:	00c10293          	addi	t0,sp,12
 2ec:	00512823          	sw	t0,16(sp)
 2f0:	01010293          	addi	t0,sp,16
 2f4:	0002a283          	lw	t0,0(t0)
 2f8:	0002a283          	lw	t0,0(t0)
 2fc:	0002a283          	lw	t0,0(t0)
 300:	0002a283          	lw	t0,0(t0)
 304:	0002a283          	lw	t0,0(t0)
 308:	01410113          	addi	sp,sp,20
 30c:	ffc12303          	lw	t1,-4(sp)
 310:	ff812383          	lw	t2,-8(sp)
 314:	ff412e03          	lw	t3,-12(sp)
 318:	ff012e83          	lw	t4,-16(sp)
 31c:	fec12f03          	lw	t5,-20(sp)
 320:	01d30333          	add	t1,t1,t4
 324:	01c383b3          	add	t2,t2,t3
 328:	40730333          	sub	t1,t1,t2
 32c:	01e30333          	add	t1,t1,t5
 330:	006282b3          	add	t0,t0,t1
 334:	01040413          	addi	s0,s0,16
 338:	fe542823          	sw	t0,-16(s0)
 33c:	ff040303          	lb	t1,-16(s0)
 340:	ff041383          	lh	t2,-16(s0)
 344:	ff044e03          	lbu	t3,-16(s0)
 348:	ff045e83          	lhu	t4,-16(s0)
 34c:	fe642a23          	sw	t1,-12(s0)
 350:	fe742c23          	sw	t2,-8(s0)
 354:	ffc42e23          	sw	t3,-4(s0)
 358:	01d42023          	sw	t4,0(s0)
 35c:	00440413          	addi	s0,s0,4

00000360 <addi>:
 360:	fff00293          	li	t0,-1
 364:	fff28293          	addi	t0,t0,-1
 368:	76528293          	addi	t0,t0,1893
 36c:	88828293          	addi	t0,t0,-1912
 370:	43228293          	addi	t0,t0,1074
 374:	abc28293          	addi	t0,t0,-1348
 378:	52100313          	li	t1,1313
 37c:	ce230393          	addi	t2,t1,-798
 380:	13b30e13          	addi	t3,t1,315
 384:	49930e93          	addi	t4,t1,1177
 388:	80130f13          	addi	t5,t1,-2047
 38c:	a6830f93          	addi	t6,t1,-1432
 390:	01c383b3          	add	t2,t2,t3
 394:	01ee8eb3          	add	t4,t4,t5
 398:	01f282b3          	add	t0,t0,t6
 39c:	01d383b3          	add	t2,t2,t4
 3a0:	007282b3          	add	t0,t0,t2
 3a4:	00542023          	sw	t0,0(s0)
 3a8:	00440413          	addi	s0,s0,4

000003ac <slti>:
 3ac:	fff00293          	li	t0,-1
 3b0:	fff2a293          	slti	t0,t0,-1
 3b4:	3e82a293          	slti	t0,t0,1000
 3b8:	8302a293          	slti	t0,t0,-2000
 3bc:	0012a293          	slti	t0,t0,1
 3c0:	4572a293          	slti	t0,t0,1111
 3c4:	c6600313          	li	t1,-922
 3c8:	c9432393          	slti	t2,t1,-876
 3cc:	22b32e13          	slti	t3,t1,555
 3d0:	83432e93          	slti	t4,t1,-1996
 3d4:	00032f13          	slti	t5,t1,0
 3d8:	c6632f93          	slti	t6,t1,-922
 3dc:	01c383b3          	add	t2,t2,t3
 3e0:	01ee8eb3          	add	t4,t4,t5
 3e4:	01f282b3          	add	t0,t0,t6
 3e8:	01d383b3          	add	t2,t2,t4
 3ec:	007282b3          	add	t0,t0,t2
 3f0:	00542023          	sw	t0,0(s0)
 3f4:	00440413          	addi	s0,s0,4

000003f8 <sltiu>:
 3f8:	ffe00293          	li	t0,-2
 3fc:	fff2b293          	sltiu	t0,t0,-1
 400:	3e82b293          	sltiu	t0,t0,1000
 404:	8302b293          	sltiu	t0,t0,-2000
 408:	f012b293          	sltiu	t0,t0,-255
 40c:	0012b293          	seqz	t0,t0
 410:	aaaac337          	lui	t1,0xaaaac
 414:	bbb30313          	addi	t1,t1,-1093 # aaaabbbb <_sim_end+0xaaa9bbbf>
 418:	c9433393          	sltiu	t2,t1,-876
 41c:	22b33e13          	sltiu	t3,t1,555
 420:	83433e93          	sltiu	t4,t1,-1996
 424:	00033f13          	sltiu	t5,t1,0
 428:	c6633f93          	sltiu	t6,t1,-922
 42c:	01c383b3          	add	t2,t2,t3
 430:	01ee8eb3          	add	t4,t4,t5
 434:	01f282b3          	add	t0,t0,t6
 438:	01d383b3          	add	t2,t2,t4
 43c:	007282b3          	add	t0,t0,t2
 440:	00542023          	sw	t0,0(s0)
 444:	00440413          	addi	s0,s0,4

00000448 <xori>:
 448:	fff00293          	li	t0,-1
 44c:	07b2c293          	xori	t0,t0,123
 450:	9752c293          	xori	t0,t0,-1675
 454:	cc12c293          	xori	t0,t0,-831
 458:	7f12c293          	xori	t0,t0,2033
 45c:	4a32c293          	xori	t0,t0,1187
 460:	38700313          	li	t1,903
 464:	ee334393          	xori	t2,t1,-285
 468:	0a434e13          	xori	t3,t1,164
 46c:	6e634e93          	xori	t4,t1,1766
 470:	89934f13          	xori	t5,t1,-1895
 474:	4b934f93          	xori	t6,t1,1209
 478:	01c383b3          	add	t2,t2,t3
 47c:	01ee8eb3          	add	t4,t4,t5
 480:	01f282b3          	add	t0,t0,t6
 484:	01d383b3          	add	t2,t2,t4
 488:	007282b3          	add	t0,t0,t2
 48c:	00542023          	sw	t0,0(s0)
 490:	00440413          	addi	s0,s0,4

00000494 <ori>:
 494:	00100293          	li	t0,1
 498:	1bc2e293          	ori	t0,t0,444
 49c:	6e52e293          	ori	t0,t0,1765
 4a0:	edd2e293          	ori	t0,t0,-291
 4a4:	09c2e293          	ori	t0,t0,156
 4a8:	5022e293          	ori	t0,t0,1282
 4ac:	78300313          	li	t1,1923
 4b0:	11d36393          	ori	t2,t1,285
 4b4:	f5c36e13          	ori	t3,t1,-164
 4b8:	91a36e93          	ori	t4,t1,-1766
 4bc:	76736f13          	ori	t5,t1,1895
 4c0:	b4736f93          	ori	t6,t1,-1209
 4c4:	01c383b3          	add	t2,t2,t3
 4c8:	01ee8eb3          	add	t4,t4,t5
 4cc:	01f282b3          	add	t0,t0,t6
 4d0:	01d383b3          	add	t2,t2,t4
 4d4:	007282b3          	add	t0,t0,t2
 4d8:	00542023          	sw	t0,0(s0)
 4dc:	00440413          	addi	s0,s0,4

000004e0 <andi>:
 4e0:	abcdf2b7          	lui	t0,0xabcdf
 4e4:	f9828293          	addi	t0,t0,-104 # abcdef98 <_sim_end+0xabccef9c>
 4e8:	eb32f293          	andi	t0,t0,-333
 4ec:	f442f293          	andi	t0,t0,-188
 4f0:	2092f293          	andi	t0,t0,521
 4f4:	e872f293          	andi	t0,t0,-377
 4f8:	3552f293          	andi	t0,t0,853
 4fc:	12345337          	lui	t1,0x12345
 500:	67830313          	addi	t1,t1,1656 # 12345678 <_sim_end+0x1233567c>
 504:	7f137393          	andi	t2,t1,2033
 508:	0da37e13          	andi	t3,t1,218
 50c:	ec437e93          	andi	t4,t1,-316
 510:	4af37f13          	andi	t5,t1,1199
 514:	cf937f93          	andi	t6,t1,-775
 518:	01c383b3          	add	t2,t2,t3
 51c:	01ee8eb3          	add	t4,t4,t5
 520:	01f282b3          	add	t0,t0,t6
 524:	01d383b3          	add	t2,t2,t4
 528:	007282b3          	add	t0,t0,t2
 52c:	00542023          	sw	t0,0(s0)
 530:	00440413          	addi	s0,s0,4

00000534 <slli>:
 534:	00a00293          	li	t0,10
 538:	00229293          	slli	t0,t0,0x2
 53c:	00529293          	slli	t0,t0,0x5
 540:	00729293          	slli	t0,t0,0x7
 544:	00a29293          	slli	t0,t0,0xa
 548:	00629293          	slli	t0,t0,0x6
 54c:	1ab24337          	lui	t1,0x1ab24
 550:	cd430313          	addi	t1,t1,-812 # 1ab23cd4 <_sim_end+0x1ab13cd8>
 554:	00f31393          	slli	t2,t1,0xf
 558:	00631e13          	slli	t3,t1,0x6
 55c:	01c31e93          	slli	t4,t1,0x1c
 560:	01131f13          	slli	t5,t1,0x11
 564:	00731f93          	slli	t6,t1,0x7
 568:	01c383b3          	add	t2,t2,t3
 56c:	01ee8eb3          	add	t4,t4,t5
 570:	01f282b3          	add	t0,t0,t6
 574:	01d383b3          	add	t2,t2,t4
 578:	007282b3          	add	t0,t0,t2
 57c:	00542023          	sw	t0,0(s0)
 580:	00440413          	addi	s0,s0,4

00000584 <srli>:
 584:	a1b2c2b7          	lui	t0,0xa1b2c
 588:	3d428293          	addi	t0,t0,980 # a1b2c3d4 <_sim_end+0xa1b1c3d8>
 58c:	0032d293          	srli	t0,t0,0x3
 590:	0042d293          	srli	t0,t0,0x4
 594:	0062d293          	srli	t0,t0,0x6
 598:	00b2d293          	srli	t0,t0,0xb
 59c:	0072d293          	srli	t0,t0,0x7
 5a0:	aabf8337          	lui	t1,0xaabf8
 5a4:	90c30313          	addi	t1,t1,-1780 # aabf790c <_sim_end+0xaabe7910>
 5a8:	01935393          	srli	t2,t1,0x19
 5ac:	01035e13          	srli	t3,t1,0x10
 5b0:	01235e93          	srli	t4,t1,0x12
 5b4:	01b35f13          	srli	t5,t1,0x1b
 5b8:	01135f93          	srli	t6,t1,0x11
 5bc:	01c383b3          	add	t2,t2,t3
 5c0:	01ee8eb3          	add	t4,t4,t5
 5c4:	01f282b3          	add	t0,t0,t6
 5c8:	01d383b3          	add	t2,t2,t4
 5cc:	007282b3          	add	t0,t0,t2
 5d0:	00542023          	sw	t0,0(s0)
 5d4:	00440413          	addi	s0,s0,4

000005d8 <srai>:
 5d8:	a1b2c2b7          	lui	t0,0xa1b2c
 5dc:	3d428293          	addi	t0,t0,980 # a1b2c3d4 <_sim_end+0xa1b1c3d8>
 5e0:	4052d293          	srai	t0,t0,0x5
 5e4:	4022d293          	srai	t0,t0,0x2
 5e8:	4082d293          	srai	t0,t0,0x8
 5ec:	4092d293          	srai	t0,t0,0x9
 5f0:	4042d293          	srai	t0,t0,0x4
 5f4:	aabf8337          	lui	t1,0xaabf8
 5f8:	90c30313          	addi	t1,t1,-1780 # aabf790c <_sim_end+0xaabe7910>
 5fc:	40d35393          	srai	t2,t1,0xd
 600:	40835e13          	srai	t3,t1,0x8
 604:	40935e93          	srai	t4,t1,0x9
 608:	40e35f13          	srai	t5,t1,0xe
 60c:	40435f93          	srai	t6,t1,0x4
 610:	01c383b3          	add	t2,t2,t3
 614:	01ee8eb3          	add	t4,t4,t5
 618:	01f282b3          	add	t0,t0,t6
 61c:	01d383b3          	add	t2,t2,t4
 620:	007282b3          	add	t0,t0,t2
 624:	00542023          	sw	t0,0(s0)
 628:	00440413          	addi	s0,s0,4

0000062c <jalr>:
 62c:	fffff2b7          	lui	t0,0xfffff
 630:	00000317          	auipc	t1,0x0
 634:	02030313          	addi	t1,t1,32 # 650 <jalr+0x24>
 638:	00030367          	jalr	t1,t1
 63c:	0012e293          	ori	t0,t0,1
 640:	00430367          	jalr	t1,4(t1)
 644:	0042e293          	ori	t0,t0,4
 648:	00430367          	jalr	t1,4(t1)
 64c:	0102e293          	ori	t0,t0,16
 650:	00430367          	jalr	t1,4(t1)
 654:	0012e293          	ori	t0,t0,1
 658:	00430367          	jalr	t1,4(t1)
 65c:	0082e293          	ori	t0,t0,8
 660:	00000317          	auipc	t1,0x0
 664:	03030313          	addi	t1,t1,48 # 690 <jalr+0x64>
 668:	fe0303e7          	jalr	t2,-32(t1)
 66c:	0202e293          	ori	t0,t0,32
 670:	fe830e67          	jalr	t3,-24(t1)
 674:	0402e293          	ori	t0,t0,64
 678:	ff030ee7          	jalr	t4,-16(t1)
 67c:	0802e293          	ori	t0,t0,128
 680:	ff830f67          	jalr	t5,-8(t1)
 684:	1002e293          	ori	t0,t0,256
 688:	00030fe7          	jalr	t6,t1
 68c:	2002e293          	ori	t0,t0,512
 690:	41c383b3          	sub	t2,t2,t3
 694:	41ee8eb3          	sub	t4,t4,t5
 698:	406f8fb3          	sub	t6,t6,t1
 69c:	01d383b3          	add	t2,t2,t4
 6a0:	01f38333          	add	t1,t2,t6
 6a4:	006292b3          	sll	t0,t0,t1
 6a8:	00542023          	sw	t0,0(s0)
 6ac:	00440413          	addi	s0,s0,4

000006b0 <store>:
 6b0:	00f00293          	li	t0,15
 6b4:	0f000313          	li	t1,240
 6b8:	000013b7          	lui	t2,0x1
 6bc:	f0038393          	addi	t2,t2,-256 # f00 <L1+0xb0>
 6c0:	0000fe37          	lui	t3,0xf
 6c4:	12345eb7          	lui	t4,0x12345
 6c8:	678e8e93          	addi	t4,t4,1656 # 12345678 <_sim_end+0x1233567c>
 6cc:	01440413          	addi	s0,s0,20
 6d0:	fe542e23          	sw	t0,-4(s0)
 6d4:	fe642c23          	sw	t1,-8(s0)
 6d8:	fe742a23          	sw	t2,-12(s0)
 6dc:	ffc42823          	sw	t3,-16(s0)
 6e0:	ffd42623          	sw	t4,-20(s0)
 6e4:	01440413          	addi	s0,s0,20
 6e8:	fd842f03          	lw	t5,-40(s0)
 6ec:	ff042e83          	lw	t4,-16(s0)
 6f0:	ffe42e23          	sw	t5,-4(s0)
 6f4:	ffe40c23          	sb	t5,-8(s0)
 6f8:	ffe41a23          	sh	t5,-12(s0)
 6fc:	ffe409a3          	sb	t5,-13(s0)
 700:	ffe41723          	sh	t5,-18(s0)
 704:	ff042283          	lw	t0,-16(s0)
 708:	fec42303          	lw	t1,-20(s0)
 70c:	005303b3          	add	t2,t1,t0
 710:	00440413          	addi	s0,s0,4
 714:	fe742e23          	sw	t2,-4(s0)

00000718 <beq>:
 718:	fffff2b7          	lui	t0,0xfffff
 71c:	fffff337          	lui	t1,0xfffff
 720:	00001337          	lui	t1,0x1
 724:	ff030313          	addi	t1,t1,-16 # ff0 <L1+0x1a0>
 728:	02628c63          	beq	t0,t1,760 <beq+0x48>
 72c:	02628a63          	beq	t0,t1,760 <beq+0x48>
 730:	02628863          	beq	t0,t1,760 <beq+0x48>
 734:	02628663          	beq	t0,t1,760 <beq+0x48>
 738:	02628463          	beq	t0,t1,760 <beq+0x48>
 73c:	fffff337          	lui	t1,0xfffff
 740:	00001337          	lui	t1,0x1
 744:	fff30313          	addi	t1,t1,-1 # fff <L1+0x1af>
 748:	00530c63          	beq	t1,t0,760 <beq+0x48>
 74c:	00530a63          	beq	t1,t0,760 <beq+0x48>
 750:	00530863          	beq	t1,t0,760 <beq+0x48>
 754:	00530663          	beq	t1,t0,760 <beq+0x48>
 758:	00530463          	beq	t1,t0,760 <beq+0x48>
 75c:	0080006f          	j	764 <beq+0x4c>
 760:	0012e293          	ori	t0,t0,1
 764:	fff34313          	not	t1,t1
 768:	00628463          	beq	t0,t1,770 <beq+0x58>
 76c:	0022e293          	ori	t0,t0,2
 770:	00542023          	sw	t0,0(s0)
 774:	00440413          	addi	s0,s0,4

00000778 <bne>:
 778:	fffff2b7          	lui	t0,0xfffff
 77c:	00001337          	lui	t1,0x1
 780:	ff030313          	addi	t1,t1,-16 # ff0 <L1+0x1a0>
 784:	fffff337          	lui	t1,0xfffff
 788:	02629c63          	bne	t0,t1,7c0 <bne+0x48>
 78c:	02629a63          	bne	t0,t1,7c0 <bne+0x48>
 790:	02629863          	bne	t0,t1,7c0 <bne+0x48>
 794:	02629663          	bne	t0,t1,7c0 <bne+0x48>
 798:	02629463          	bne	t0,t1,7c0 <bne+0x48>
 79c:	00001337          	lui	t1,0x1
 7a0:	fff30313          	addi	t1,t1,-1 # fff <L1+0x1af>
 7a4:	fffff337          	lui	t1,0xfffff
 7a8:	00531c63          	bne	t1,t0,7c0 <bne+0x48>
 7ac:	00531a63          	bne	t1,t0,7c0 <bne+0x48>
 7b0:	00531863          	bne	t1,t0,7c0 <bne+0x48>
 7b4:	00531663          	bne	t1,t0,7c0 <bne+0x48>
 7b8:	00531463          	bne	t1,t0,7c0 <bne+0x48>
 7bc:	0080006f          	j	7c4 <bne+0x4c>
 7c0:	0012e293          	ori	t0,t0,1
 7c4:	fff34313          	not	t1,t1
 7c8:	00629463          	bne	t0,t1,7d0 <bne+0x58>
 7cc:	0022e293          	ori	t0,t0,2
 7d0:	00542023          	sw	t0,0(s0)
 7d4:	00440413          	addi	s0,s0,4

000007d8 <blt>:
 7d8:	fffff2b7          	lui	t0,0xfffff
 7dc:	00001337          	lui	t1,0x1
 7e0:	ff030313          	addi	t1,t1,-16 # ff0 <L1+0x1a0>
 7e4:	ffc28313          	addi	t1,t0,-4 # ffffeffc <_sim_end+0xfffef000>
 7e8:	0262cc63          	blt	t0,t1,820 <blt+0x48>
 7ec:	0262ca63          	blt	t0,t1,820 <blt+0x48>
 7f0:	0262c863          	blt	t0,t1,820 <blt+0x48>
 7f4:	0262c663          	blt	t0,t1,820 <blt+0x48>
 7f8:	0262c463          	blt	t0,t1,820 <blt+0x48>
 7fc:	00001337          	lui	t1,0x1
 800:	fff30313          	addi	t1,t1,-1 # fff <L1+0x1af>
 804:	00428313          	addi	t1,t0,4
 808:	00534c63          	blt	t1,t0,820 <blt+0x48>
 80c:	00534a63          	blt	t1,t0,820 <blt+0x48>
 810:	00534863          	blt	t1,t0,820 <blt+0x48>
 814:	00534663          	blt	t1,t0,820 <blt+0x48>
 818:	00534463          	blt	t1,t0,820 <blt+0x48>
 81c:	0080006f          	j	824 <blt+0x4c>
 820:	0012e293          	ori	t0,t0,1
 824:	00001337          	lui	t1,0x1
 828:	fff30313          	addi	t1,t1,-1 # fff <L1+0x1af>
 82c:	0062c463          	blt	t0,t1,834 <blt+0x5c>
 830:	0022e293          	ori	t0,t0,2
 834:	00028313          	mv	t1,t0
 838:	0062c463          	blt	t0,t1,840 <blt+0x68>
 83c:	0080006f          	j	844 <blt+0x6c>
 840:	0042e293          	ori	t0,t0,4
 844:	fffff337          	lui	t1,0xfffff
 848:	eee30313          	addi	t1,t1,-274 # ffffeeee <_sim_end+0xfffeeef2>
 84c:	0062c463          	blt	t0,t1,854 <blt+0x7c>
 850:	0080006f          	j	858 <blt+0x80>
 854:	0082e293          	ori	t0,t0,8
 858:	00542023          	sw	t0,0(s0)
 85c:	00440413          	addi	s0,s0,4

00000860 <bge>:
 860:	fffff2b7          	lui	t0,0xfffff
 864:	fffff337          	lui	t1,0xfffff
 868:	00428313          	addi	t1,t0,4 # fffff004 <_sim_end+0xfffef008>
 86c:	0262da63          	bge	t0,t1,8a0 <bge+0x40>
 870:	0262d863          	bge	t0,t1,8a0 <bge+0x40>
 874:	0262d663          	bge	t0,t1,8a0 <bge+0x40>
 878:	0262d463          	bge	t0,t1,8a0 <bge+0x40>
 87c:	0262d263          	bge	t0,t1,8a0 <bge+0x40>
 880:	ffff0337          	lui	t1,0xffff0
 884:	ffc28313          	addi	t1,t0,-4
 888:	00535c63          	bge	t1,t0,8a0 <bge+0x40>
 88c:	00535a63          	bge	t1,t0,8a0 <bge+0x40>
 890:	00535863          	bge	t1,t0,8a0 <bge+0x40>
 894:	00535663          	bge	t1,t0,8a0 <bge+0x40>
 898:	00535463          	bge	t1,t0,8a0 <bge+0x40>
 89c:	0080006f          	j	8a4 <bge+0x44>
 8a0:	0012e293          	ori	t0,t0,1
 8a4:	00001337          	lui	t1,0x1
 8a8:	fff30313          	addi	t1,t1,-1 # fff <L1+0x1af>
 8ac:	0062d463          	bge	t0,t1,8b4 <bge+0x54>
 8b0:	0080006f          	j	8b8 <bge+0x58>
 8b4:	0022e293          	ori	t0,t0,2
 8b8:	00028313          	mv	t1,t0
 8bc:	0062d463          	bge	t0,t1,8c4 <bge+0x64>
 8c0:	0042e293          	ori	t0,t0,4
 8c4:	fffff337          	lui	t1,0xfffff
 8c8:	eee30313          	addi	t1,t1,-274 # ffffeeee <_sim_end+0xfffeeef2>
 8cc:	0062d463          	bge	t0,t1,8d4 <bge+0x74>
 8d0:	0082e293          	ori	t0,t0,8
 8d4:	00542023          	sw	t0,0(s0)
 8d8:	00440413          	addi	s0,s0,4

000008dc <bltu>:
 8dc:	fffff2b7          	lui	t0,0xfffff
 8e0:	f0000313          	li	t1,-256
 8e4:	ffc28313          	addi	t1,t0,-4 # ffffeffc <_sim_end+0xfffef000>
 8e8:	0262ea63          	bltu	t0,t1,91c <bltu+0x40>
 8ec:	0262e863          	bltu	t0,t1,91c <bltu+0x40>
 8f0:	0262e663          	bltu	t0,t1,91c <bltu+0x40>
 8f4:	0262e463          	bltu	t0,t1,91c <bltu+0x40>
 8f8:	0262e263          	bltu	t0,t1,91c <bltu+0x40>
 8fc:	fff00313          	li	t1,-1
 900:	00428313          	addi	t1,t0,4
 904:	00536c63          	bltu	t1,t0,91c <bltu+0x40>
 908:	00536a63          	bltu	t1,t0,91c <bltu+0x40>
 90c:	00536863          	bltu	t1,t0,91c <bltu+0x40>
 910:	00536663          	bltu	t1,t0,91c <bltu+0x40>
 914:	00536463          	bltu	t1,t0,91c <bltu+0x40>
 918:	0080006f          	j	920 <bltu+0x44>
 91c:	0012e293          	ori	t0,t0,1
 920:	fff00313          	li	t1,-1
 924:	0062e463          	bltu	t0,t1,92c <bltu+0x50>
 928:	0022e293          	ori	t0,t0,2
 92c:	00028313          	mv	t1,t0
 930:	0062e463          	bltu	t0,t1,938 <bltu+0x5c>
 934:	0080006f          	j	93c <bltu+0x60>
 938:	0042e293          	ori	t0,t0,4
 93c:	00001337          	lui	t1,0x1
 940:	fff30313          	addi	t1,t1,-1 # fff <L1+0x1af>
 944:	0062e463          	bltu	t0,t1,94c <bltu+0x70>
 948:	0080006f          	j	950 <bltu+0x74>
 94c:	0082e293          	ori	t0,t0,8
 950:	00542023          	sw	t0,0(s0)
 954:	00440413          	addi	s0,s0,4

00000958 <bgeu>:
 958:	fffff2b7          	lui	t0,0xfffff
 95c:	fffff337          	lui	t1,0xfffff
 960:	00428313          	addi	t1,t0,4 # fffff004 <_sim_end+0xfffef008>
 964:	0262fc63          	bgeu	t0,t1,99c <bgeu+0x44>
 968:	0262fa63          	bgeu	t0,t1,99c <bgeu+0x44>
 96c:	0262f863          	bgeu	t0,t1,99c <bgeu+0x44>
 970:	0262f663          	bgeu	t0,t1,99c <bgeu+0x44>
 974:	0262f463          	bgeu	t0,t1,99c <bgeu+0x44>
 978:	00001337          	lui	t1,0x1
 97c:	fff30313          	addi	t1,t1,-1 # fff <L1+0x1af>
 980:	ffc28313          	addi	t1,t0,-4
 984:	00537c63          	bgeu	t1,t0,99c <bgeu+0x44>
 988:	00537a63          	bgeu	t1,t0,99c <bgeu+0x44>
 98c:	00537863          	bgeu	t1,t0,99c <bgeu+0x44>
 990:	00537663          	bgeu	t1,t0,99c <bgeu+0x44>
 994:	00537463          	bgeu	t1,t0,99c <bgeu+0x44>
 998:	0080006f          	j	9a0 <bgeu+0x48>
 99c:	0012e293          	ori	t0,t0,1
 9a0:	fff00313          	li	t1,-1
 9a4:	0062f463          	bgeu	t0,t1,9ac <bgeu+0x54>
 9a8:	0080006f          	j	9b0 <bgeu+0x58>
 9ac:	0022e293          	ori	t0,t0,2
 9b0:	00028313          	mv	t1,t0
 9b4:	0062f463          	bgeu	t0,t1,9bc <bgeu+0x64>
 9b8:	0042e293          	ori	t0,t0,4
 9bc:	00001337          	lui	t1,0x1
 9c0:	fff30313          	addi	t1,t1,-1 # fff <L1+0x1af>
 9c4:	0062f463          	bgeu	t0,t1,9cc <bgeu+0x74>
 9c8:	0082e293          	ori	t0,t0,8
 9cc:	00542023          	sw	t0,0(s0)
 9d0:	00440413          	addi	s0,s0,4

000009d4 <auipc>:
 9d4:	00000297          	auipc	t0,0x0
 9d8:	fffff317          	auipc	t1,0xfffff
 9dc:	13579397          	auipc	t2,0x13579
 9e0:	00730333          	add	t1,t1,t2
 9e4:	006282b3          	add	t0,t0,t1
 9e8:	00542023          	sw	t0,0(s0)
 9ec:	00440413          	addi	s0,s0,4

000009f0 <lui>:
 9f0:	000002b7          	lui	t0,0x0
 9f4:	fffff337          	lui	t1,0xfffff
 9f8:	135793b7          	lui	t2,0x13579
 9fc:	00730333          	add	t1,t1,t2
 a00:	006282b3          	add	t0,t0,t1
 a04:	00542023          	sw	t0,0(s0)
 a08:	00440413          	addi	s0,s0,4

00000a0c <jal>:
 a0c:	fffff2b7          	lui	t0,0xfffff
 a10:	0080036f          	jal	t1,a18 <jal+0xc>
 a14:	0012e293          	ori	t0,t0,1
 a18:	00000397          	auipc	t2,0x0
 a1c:	00038393          	mv	t2,t2
 a20:	40638333          	sub	t1,t2,t1
 a24:	006282b3          	add	t0,t0,t1
 a28:	00542023          	sw	t0,0(s0)
 a2c:	00440413          	addi	s0,s0,4
 a30:	ff410113          	addi	sp,sp,-12
 a34:	00812423          	sw	s0,8(sp)
 a38:	00912223          	sw	s1,4(sp)
 a3c:	01212023          	sw	s2,0(sp)
 a40:	00040d93          	mv	s11,s0
 a44:	000d8913          	mv	s2,s11
 a48:	00007417          	auipc	s0,0x7
 a4c:	5bc40413          	addi	s0,s0,1468 # 8004 <test1>
 a50:	00007497          	auipc	s1,0x7
 a54:	6dc4a483          	lw	s1,1756(s1) # 812c <TEST1_SIZE>
 a58:	ffc10113          	addi	sp,sp,-4
 a5c:	00112023          	sw	ra,0(sp)
 a60:	00040513          	mv	a0,s0
 a64:	00000593          	li	a1,0
 a68:	fff48613          	addi	a2,s1,-1
 a6c:	1b8000ef          	jal	ra,c24 <mergesort>
 a70:	00012083          	lw	ra,0(sp)
 a74:	00410113          	addi	sp,sp,4
 a78:	00000313          	li	t1,0

00000a7c <write_anwser1>:
 a7c:	02000393          	li	t2,32
 a80:	00042283          	lw	t0,0(s0)
 a84:	00592023          	sw	t0,0(s2)
 a88:	00440413          	addi	s0,s0,4
 a8c:	00490913          	addi	s2,s2,4
 a90:	00130313          	addi	t1,t1,1 # fffff001 <_sim_end+0xfffef005>
 a94:	fe7344e3          	blt	t1,t2,a7c <write_anwser1>

00000a98 <end_anwser1>:
 a98:	00007417          	auipc	s0,0x7
 a9c:	5ec40413          	addi	s0,s0,1516 # 8084 <test2>
 aa0:	00007497          	auipc	s1,0x7
 aa4:	6904a483          	lw	s1,1680(s1) # 8130 <TEST2_SIZE>
 aa8:	00007f17          	auipc	t5,0x7
 aac:	684f2f03          	lw	t5,1668(t5) # 812c <TEST1_SIZE>
 ab0:	002f1f13          	slli	t5,t5,0x2
 ab4:	01ed8933          	add	s2,s11,t5
 ab8:	ffc10113          	addi	sp,sp,-4
 abc:	00112023          	sw	ra,0(sp)
 ac0:	00040513          	mv	a0,s0
 ac4:	00000593          	li	a1,0
 ac8:	fff48613          	addi	a2,s1,-1
 acc:	158000ef          	jal	ra,c24 <mergesort>
 ad0:	00012083          	lw	ra,0(sp)
 ad4:	00410113          	addi	sp,sp,4
 ad8:	00000313          	li	t1,0

00000adc <write_anwser2>:
 adc:	00007397          	auipc	t2,0x7
 ae0:	6543a383          	lw	t2,1620(t2) # 8130 <TEST2_SIZE>
 ae4:	00042283          	lw	t0,0(s0)
 ae8:	00592023          	sw	t0,0(s2)
 aec:	00440413          	addi	s0,s0,4
 af0:	00490913          	addi	s2,s2,4
 af4:	00130313          	addi	t1,t1,1
 af8:	fe7342e3          	blt	t1,t2,adc <write_anwser2>

00000afc <end_anwser2>:
 afc:	00007417          	auipc	s0,0x7
 b00:	5c440413          	addi	s0,s0,1476 # 80c0 <test3>
 b04:	00007497          	auipc	s1,0x7
 b08:	6304a483          	lw	s1,1584(s1) # 8134 <TEST3_SIZE>
 b0c:	00007e97          	auipc	t4,0x7
 b10:	620eae83          	lw	t4,1568(t4) # 812c <TEST1_SIZE>
 b14:	00007f17          	auipc	t5,0x7
 b18:	61cf2f03          	lw	t5,1564(t5) # 8130 <TEST2_SIZE>
 b1c:	01df0f33          	add	t5,t5,t4
 b20:	002f1f13          	slli	t5,t5,0x2
 b24:	01ed8933          	add	s2,s11,t5
 b28:	ffc10113          	addi	sp,sp,-4
 b2c:	00112023          	sw	ra,0(sp)
 b30:	00040513          	mv	a0,s0
 b34:	00000593          	li	a1,0
 b38:	fff48613          	addi	a2,s1,-1
 b3c:	0e8000ef          	jal	ra,c24 <mergesort>
 b40:	00012083          	lw	ra,0(sp)
 b44:	00410113          	addi	sp,sp,4
 b48:	00000313          	li	t1,0

00000b4c <write_anwser3>:
 b4c:	00007397          	auipc	t2,0x7
 b50:	5e83a383          	lw	t2,1512(t2) # 8134 <TEST3_SIZE>
 b54:	00042283          	lw	t0,0(s0)
 b58:	00592023          	sw	t0,0(s2)
 b5c:	00440413          	addi	s0,s0,4
 b60:	00490913          	addi	s2,s2,4
 b64:	00130313          	addi	t1,t1,1
 b68:	fe7342e3          	blt	t1,t2,b4c <write_anwser3>

00000b6c <end_anwser3>:
 b6c:	00812403          	lw	s0,8(sp)
 b70:	00412483          	lw	s1,4(sp)
 b74:	01212023          	sw	s2,0(sp)
 b78:	00c10113          	addi	sp,sp,12
 b7c:	00007517          	auipc	a0,0x7
 b80:	5bc52503          	lw	a0,1468(a0) # 8138 <test4>
 b84:	00100413          	li	s0,1
 b88:	ffc10113          	addi	sp,sp,-4
 b8c:	00112023          	sw	ra,0(sp)
 b90:	284000ef          	jal	ra,e14 <fib>
 b94:	00012083          	lw	ra,0(sp)
 b98:	00410113          	addi	sp,sp,4
 b9c:	00050593          	mv	a1,a0
 ba0:	00007517          	auipc	a0,0x7
 ba4:	59852503          	lw	a0,1432(a0) # 8138 <test4>
 ba8:	00b92023          	sw	a1,0(s2)
 bac:	00490913          	addi	s2,s2,4
 bb0:	00007517          	auipc	a0,0x7
 bb4:	58c52503          	lw	a0,1420(a0) # 813c <test5>
 bb8:	00100413          	li	s0,1
 bbc:	ffc10113          	addi	sp,sp,-4
 bc0:	00112023          	sw	ra,0(sp)
 bc4:	250000ef          	jal	ra,e14 <fib>
 bc8:	00012083          	lw	ra,0(sp)
 bcc:	00410113          	addi	sp,sp,4
 bd0:	00050593          	mv	a1,a0
 bd4:	00007517          	auipc	a0,0x7
 bd8:	56852503          	lw	a0,1384(a0) # 813c <test5>
 bdc:	00b92023          	sw	a1,0(s2)
 be0:	00490913          	addi	s2,s2,4
 be4:	00007517          	auipc	a0,0x7
 be8:	55c52503          	lw	a0,1372(a0) # 8140 <test6>
 bec:	00100413          	li	s0,1
 bf0:	ffc10113          	addi	sp,sp,-4
 bf4:	00112023          	sw	ra,0(sp)
 bf8:	21c000ef          	jal	ra,e14 <fib>
 bfc:	00012083          	lw	ra,0(sp)
 c00:	00410113          	addi	sp,sp,4
 c04:	00050593          	mv	a1,a0
 c08:	00007517          	auipc	a0,0x7
 c0c:	53852503          	lw	a0,1336(a0) # 8140 <test6>
 c10:	00b92023          	sw	a1,0(s2)
 c14:	00490913          	addi	s2,s2,4

00000c18 <main_exit>:
 c18:	00012403          	lw	s0,0(sp)
 c1c:	00410113          	addi	sp,sp,4
 c20:	00008067          	ret

00000c24 <mergesort>:
 c24:	00050293          	mv	t0,a0
 c28:	00058313          	mv	t1,a1
 c2c:	00060393          	mv	t2,a2
 c30:	1e735063          	bge	t1,t2,e10 <end_mergesort>
 c34:	00730e33          	add	t3,t1,t2
 c38:	001e5e13          	srli	t3,t3,0x1
 c3c:	ff010113          	addi	sp,sp,-16
 c40:	00612623          	sw	t1,12(sp)
 c44:	00712423          	sw	t2,8(sp)
 c48:	01c12223          	sw	t3,4(sp)
 c4c:	00112023          	sw	ra,0(sp)
 c50:	00028513          	mv	a0,t0
 c54:	00030593          	mv	a1,t1
 c58:	000e0613          	mv	a2,t3
 c5c:	fc9ff0ef          	jal	ra,c24 <mergesort>
 c60:	00c12303          	lw	t1,12(sp)
 c64:	00812383          	lw	t2,8(sp)
 c68:	00412e03          	lw	t3,4(sp)
 c6c:	00012083          	lw	ra,0(sp)
 c70:	01010113          	addi	sp,sp,16
 c74:	ff010113          	addi	sp,sp,-16
 c78:	00612623          	sw	t1,12(sp)
 c7c:	00712423          	sw	t2,8(sp)
 c80:	01c12223          	sw	t3,4(sp)
 c84:	00112023          	sw	ra,0(sp)
 c88:	00028513          	mv	a0,t0
 c8c:	001e0e13          	addi	t3,t3,1 # f001 <_answer+0x6001>
 c90:	000e0593          	mv	a1,t3
 c94:	00038613          	mv	a2,t2
 c98:	f8dff0ef          	jal	ra,c24 <mergesort>
 c9c:	00c12303          	lw	t1,12(sp)
 ca0:	00812383          	lw	t2,8(sp)
 ca4:	00412e03          	lw	t3,4(sp)
 ca8:	00012083          	lw	ra,0(sp)
 cac:	01010113          	addi	sp,sp,16

00000cb0 <merge>:
 cb0:	fd410113          	addi	sp,sp,-44
 cb4:	02812423          	sw	s0,40(sp)
 cb8:	02912223          	sw	s1,36(sp)
 cbc:	03212023          	sw	s2,32(sp)
 cc0:	01312e23          	sw	s3,28(sp)
 cc4:	01412c23          	sw	s4,24(sp)
 cc8:	01512a23          	sw	s5,20(sp)
 ccc:	01612823          	sw	s6,16(sp)
 cd0:	01712623          	sw	s7,12(sp)
 cd4:	01812423          	sw	s8,8(sp)
 cd8:	01912223          	sw	s9,4(sp)
 cdc:	01a12023          	sw	s10,0(sp)
 ce0:	40638433          	sub	s0,t2,t1
 ce4:	00140413          	addi	s0,s0,1
 ce8:	00000e93          	li	t4,0
 cec:	00000493          	li	s1,0
 cf0:	406e0933          	sub	s2,t3,t1
 cf4:	00190913          	addi	s2,s2,1
 cf8:	406e09b3          	sub	s3,t3,t1
 cfc:	40638a33          	sub	s4,t2,t1
 d00:	00030a93          	mv	s5,t1
 d04:	00241b93          	slli	s7,s0,0x2
 d08:	41710133          	sub	sp,sp,s7
 d0c:	00010b13          	mv	s6,sp
 d10:	028ed463          	bge	t4,s0,d38 <endforloop>

00000d14 <forloop>:
 d14:	01d30f33          	add	t5,t1,t4
 d18:	002f1f13          	slli	t5,t5,0x2
 d1c:	01e28c33          	add	s8,t0,t5
 d20:	000c2c83          	lw	s9,0(s8)
 d24:	002e9f13          	slli	t5,t4,0x2
 d28:	01eb0c33          	add	s8,s6,t5
 d2c:	019c2023          	sw	s9,0(s8)
 d30:	001e8e93          	addi	t4,t4,1
 d34:	fe8ec0e3          	blt	t4,s0,d14 <forloop>

00000d38 <endforloop>:
 d38:	0699ce63          	blt	s3,s1,db4 <while3loop>
 d3c:	052a4863          	blt	s4,s2,d8c <while2loop>
 d40:	00249f13          	slli	t5,s1,0x2
 d44:	01eb0c33          	add	s8,s6,t5
 d48:	000c2c83          	lw	s9,0(s8)
 d4c:	00291f13          	slli	t5,s2,0x2
 d50:	01eb0c33          	add	s8,s6,t5
 d54:	000c2d03          	lw	s10,0(s8)
 d58:	019d4e63          	blt	s10,s9,d74 <while1loop_else>

00000d5c <while1loop_if>:
 d5c:	002a9f13          	slli	t5,s5,0x2
 d60:	01e28c33          	add	s8,t0,t5
 d64:	019c2023          	sw	s9,0(s8)
 d68:	001a8a93          	addi	s5,s5,1
 d6c:	00148493          	addi	s1,s1,1
 d70:	fc9ff06f          	j	d38 <endforloop>

00000d74 <while1loop_else>:
 d74:	002a9f13          	slli	t5,s5,0x2
 d78:	01e28c33          	add	s8,t0,t5
 d7c:	01ac2023          	sw	s10,0(s8)
 d80:	001a8a93          	addi	s5,s5,1
 d84:	00190913          	addi	s2,s2,1
 d88:	fb1ff06f          	j	d38 <endforloop>

00000d8c <while2loop>:
 d8c:	0499c863          	blt	s3,s1,ddc <endwhile>
 d90:	00249f13          	slli	t5,s1,0x2
 d94:	01eb0c33          	add	s8,s6,t5
 d98:	000c2c83          	lw	s9,0(s8)
 d9c:	002a9f13          	slli	t5,s5,0x2
 da0:	01e28c33          	add	s8,t0,t5
 da4:	019c2023          	sw	s9,0(s8)
 da8:	001a8a93          	addi	s5,s5,1
 dac:	00148493          	addi	s1,s1,1
 db0:	fddff06f          	j	d8c <while2loop>

00000db4 <while3loop>:
 db4:	032a4463          	blt	s4,s2,ddc <endwhile>
 db8:	00291f13          	slli	t5,s2,0x2
 dbc:	01eb0c33          	add	s8,s6,t5
 dc0:	000c2c83          	lw	s9,0(s8)
 dc4:	002a9f13          	slli	t5,s5,0x2
 dc8:	01e28c33          	add	s8,t0,t5
 dcc:	019c2023          	sw	s9,0(s8)
 dd0:	001a8a93          	addi	s5,s5,1
 dd4:	00190913          	addi	s2,s2,1
 dd8:	fddff06f          	j	db4 <while3loop>

00000ddc <endwhile>:
 ddc:	01710133          	add	sp,sp,s7
 de0:	02812403          	lw	s0,40(sp)
 de4:	02412483          	lw	s1,36(sp)
 de8:	02012903          	lw	s2,32(sp)
 dec:	01c12983          	lw	s3,28(sp)
 df0:	01812a03          	lw	s4,24(sp)
 df4:	01412a83          	lw	s5,20(sp)
 df8:	01012b03          	lw	s6,16(sp)
 dfc:	00c12b83          	lw	s7,12(sp)
 e00:	00812c03          	lw	s8,8(sp)
 e04:	00412c83          	lw	s9,4(sp)
 e08:	00012d03          	lw	s10,0(sp)
 e0c:	02c10113          	addi	sp,sp,44

00000e10 <end_mergesort>:
 e10:	00008067          	ret

00000e14 <fib>:
 e14:	02a45e63          	bge	s0,a0,e50 <L1>
 e18:	ff410113          	addi	sp,sp,-12
 e1c:	00112423          	sw	ra,8(sp)
 e20:	00a12223          	sw	a0,4(sp)
 e24:	fff50513          	addi	a0,a0,-1
 e28:	fedff0ef          	jal	ra,e14 <fib>
 e2c:	00a12023          	sw	a0,0(sp)
 e30:	00412503          	lw	a0,4(sp)
 e34:	ffe50513          	addi	a0,a0,-2
 e38:	fddff0ef          	jal	ra,e14 <fib>
 e3c:	00012283          	lw	t0,0(sp)
 e40:	00550533          	add	a0,a0,t0
 e44:	00812083          	lw	ra,8(sp)
 e48:	00c10113          	addi	sp,sp,12
 e4c:	00008067          	ret

00000e50 <L1>:
 e50:	00008067          	ret
